target datalayout = "e-m:e-p270:32:32-p271:32:32-p272:64:64-i64:64-i128:128-f80:128-n8:16:32:64-S128"
target triple = "x86_64-pc-linux-gnu"

%struct.amqp_defined_types_t = type { i32, ptr, i32, ptr }

@.str.1502 = private unnamed_addr constant [31 x i8] c"Invalid string length size %d!\00", align 1

; Function Attrs: null_pointer_is_valid sspstrong uwtable
define internal i32 @format_amqp_1_0_str(ptr noundef %0, i32 noundef %1, i32 noundef %2, ptr noundef %3) #0 {
  %5 = alloca i32, align 4
  %6 = alloca ptr, align 8
  %7 = alloca i32, align 4
  %8 = alloca i32, align 4
  %9 = alloca ptr, align 8
  %10 = alloca i32, align 4
  %11 = alloca i32, align 4
  store ptr %0, ptr %6, align 8
  store i32 %1, ptr %7, align 4
  store i32 %2, ptr %8, align 4
  store ptr %3, ptr %9, align 8
  call void @llvm.lifetime.start.p0(i64 4, ptr %10) #11
  %12 = load i32, ptr %8, align 4
  %13 = icmp eq i32 %12, 1
  br i1 %13, label %14, label %19

14:                                               ; preds = %4
  %15 = load ptr, ptr %6, align 8
  %16 = load i32, ptr %7, align 4
  %17 = call zeroext i8 @tvb_get_uint8(ptr noundef %15, i32 noundef %16)
  %18 = zext i8 %17 to i32
  store i32 %18, ptr %10, align 4
  br label %33

19:                                               ; preds = %4
  %20 = load i32, ptr %8, align 4
  %21 = icmp eq i32 %20, 4
  br i1 %21, label %22, label %26

22:                                               ; preds = %19
  %23 = load ptr, ptr %6, align 8
  %24 = load i32, ptr %7, align 4
  %25 = call i32 @tvb_get_ntohl(ptr noundef %23, i32 noundef %24)
  store i32 %25, ptr %10, align 4
  br label %32

26:                                               ; preds = %19
  %27 = call ptr @wmem_packet_scope()
  %28 = load i32, ptr %8, align 4
  %29 = call noalias ptr (ptr, ptr, ...) @wmem_strdup_printf(ptr noundef %27, ptr noundef @.str.1502, i32 noundef %28)
  %30 = load ptr, ptr %9, align 8
  store ptr %29, ptr %30, align 8
  %31 = load i32, ptr %8, align 4
  store i32 %31, ptr %5, align 4
  store i32 1, ptr %11, align 4
  br label %46

32:                                               ; preds = %22
  br label %33

33:                                               ; preds = %32, %14
  %34 = load i32, ptr %8, align 4
  %35 = load i32, ptr %7, align 4
  %36 = add i32 %35, %34
  store i32 %36, ptr %7, align 4
  %37 = call ptr @wmem_packet_scope()
  %38 = load ptr, ptr %6, align 8
  %39 = load i32, ptr %7, align 4
  %40 = load i32, ptr %10, align 4
  %41 = call ptr @tvb_get_string_enc(ptr noundef %37, ptr noundef %38, i32 noundef %39, i32 noundef %40, i32 noundef 2)
  %42 = load ptr, ptr %9, align 8
  store ptr %41, ptr %42, align 8
  %43 = load i32, ptr %10, align 4
  %44 = load i32, ptr %8, align 4
  %45 = add i32 %43, %44
  store i32 %45, ptr %5, align 4
  store i32 1, ptr %11, align 4
  br label %46

46:                                               ; preds = %33, %26
  call void @llvm.lifetime.end.p0(i64 4, ptr %10) #11
  %47 = load i32, ptr %5, align 4
  ret i32 %47
}

; Function Attrs: null_pointer_is_valid sspstrong uwtable
define internal i32 @get_amqp_1_0_type_formatter(ptr noundef %0, i32 noundef %1, ptr noundef %2, ptr noundef %3, ptr noundef %4, ptr noundef %5, ptr noundef %6) #0 {
  %8 = alloca ptr, align 8
  %9 = alloca i32, align 4
  %10 = alloca ptr, align 8
  %11 = alloca ptr, align 8
  %12 = alloca ptr, align 8
  %13 = alloca ptr, align 8
  %14 = alloca ptr, align 8
  %15 = alloca i32, align 4
  %16 = alloca i32, align 4
  %17 = alloca i32, align 4
  %18 = alloca i32, align 4
  %19 = alloca i32, align 4
  store ptr %0, ptr %8, align 8
  store i32 %1, ptr %9, align 4
  store ptr %2, ptr %10, align 8
  store ptr %3, ptr %11, align 8
  store ptr %4, ptr %12, align 8
  store ptr %5, ptr %13, align 8
  store ptr %6, ptr %14, align 8
  call void @llvm.lifetime.start.p0(i64 4, ptr %15) #11
  call void @llvm.lifetime.start.p0(i64 4, ptr %16) #11
  call void @llvm.lifetime.start.p0(i64 4, ptr %17) #11
  call void @llvm.lifetime.start.p0(i64 4, ptr %18) #11
  store i32 0, ptr %18, align 4
  call void @llvm.lifetime.start.p0(i64 4, ptr %19) #11
  %20 = load i32, ptr %9, align 4
  store i32 %20, ptr %19, align 4
  %21 = load ptr, ptr %8, align 8
  %22 = load i32, ptr %9, align 4
  %23 = call zeroext i8 @tvb_get_uint8(ptr noundef %21, i32 noundef %22)
  %24 = zext i8 %23 to i32
  store i32 %24, ptr %16, align 4
  %25 = load i32, ptr %9, align 4
  %26 = add i32 %25, 1
  store i32 %26, ptr %9, align 4
  %27 = load i32, ptr %16, align 4
  %28 = icmp eq i32 %27, 0
  br i1 %28, label %29, label %126

29:                                               ; preds = %7
  %30 = load ptr, ptr %8, align 8
  %31 = load i32, ptr %9, align 4
  %32 = call zeroext i8 @tvb_get_uint8(ptr noundef %30, i32 noundef %31)
  %33 = zext i8 %32 to i32
  store i32 %33, ptr %17, align 4
  %34 = load i32, ptr %9, align 4
  %35 = add i32 %34, 1
  store i32 %35, ptr %9, align 4
  %36 = load i32, ptr %17, align 4
  %37 = srem i32 %36, 16
  %38 = icmp eq i32 %37, 15
  br i1 %38, label %39, label %42

39:                                               ; preds = %29
  %40 = load i32, ptr %9, align 4
  %41 = add i32 %40, 1
  store i32 %41, ptr %9, align 4
  br label %42

42:                                               ; preds = %39, %29
  %43 = load i32, ptr %17, align 4
  %44 = sdiv i32 %43, 16
  switch i32 %44, label %76 [
    i32 4, label %45
    i32 5, label %46
    i32 6, label %51
    i32 7, label %56
    i32 8, label %60
    i32 9, label %65
    i32 10, label %66
    i32 11, label %71
  ]

45:                                               ; preds = %42
  store i32 0, ptr %18, align 4
  br label %76

46:                                               ; preds = %42
  store i32 1, ptr %18, align 4
  %47 = load ptr, ptr %8, align 8
  %48 = load i32, ptr %9, align 4
  %49 = call zeroext i8 @tvb_get_uint8(ptr noundef %47, i32 noundef %48)
  %50 = zext i8 %49 to i32
  store i32 %50, ptr %16, align 4
  br label %76

51:                                               ; preds = %42
  store i32 2, ptr %18, align 4
  %52 = load ptr, ptr %8, align 8
  %53 = load i32, ptr %9, align 4
  %54 = call zeroext i16 @tvb_get_ntohs(ptr noundef %52, i32 noundef %53)
  %55 = zext i16 %54 to i32
  store i32 %55, ptr %16, align 4
  br label %76

56:                                               ; preds = %42
  store i32 4, ptr %18, align 4
  %57 = load ptr, ptr %8, align 8
  %58 = load i32, ptr %9, align 4
  %59 = call i32 @tvb_get_ntohl(ptr noundef %57, i32 noundef %58)
  store i32 %59, ptr %16, align 4
  br label %76

60:                                               ; preds = %42
  store i32 8, ptr %18, align 4
  %61 = load ptr, ptr %8, align 8
  %62 = load i32, ptr %9, align 4
  %63 = call i64 @tvb_get_ntoh64(ptr noundef %61, i32 noundef %62)
  %64 = trunc i64 %63 to i32
  store i32 %64, ptr %16, align 4
  br label %76

65:                                               ; preds = %42
  store i32 16, ptr %18, align 4
  br label %76

66:                                               ; preds = %42
  %67 = load ptr, ptr %8, align 8
  %68 = load i32, ptr %9, align 4
  %69 = load ptr, ptr %11, align 8
  %70 = call i32 @format_amqp_1_0_str(ptr noundef %67, i32 noundef %68, i32 noundef 1, ptr noundef %69)
  store i32 %70, ptr %18, align 4
  br label %76

71:                                               ; preds = %42
  %72 = load ptr, ptr %8, align 8
  %73 = load i32, ptr %9, align 4
  %74 = load ptr, ptr %11, align 8
  %75 = call i32 @format_amqp_1_0_str(ptr noundef %72, i32 noundef %73, i32 noundef 4, ptr noundef %74)
  store i32 %75, ptr %18, align 4
  br label %76

76:                                               ; preds = %42, %71, %66, %65, %60, %56, %51, %46, %45
  %77 = load i32, ptr %18, align 4
  %78 = load i32, ptr %9, align 4
  %79 = add i32 %78, %77
  store i32 %79, ptr %9, align 4
  store i32 0, ptr %15, align 4
  br label %80

80:                                               ; preds = %116, %76
  %81 = load i32, ptr %15, align 4
  %82 = sext i32 %81 to i64
  %83 = getelementptr [27 x %struct.amqp_defined_types_t], ptr @amqp_1_0_defined_types, i64 0, i64 %82
  %84 = getelementptr inbounds nuw %struct.amqp_defined_types_t, ptr %83, i32 0, i32 0
  %85 = load i32, ptr %84, align 16
  %86 = icmp ne i32 %85, 0
  br i1 %86, label %87, label %119

87:                                               ; preds = %80
  %88 = load i32, ptr %15, align 4
  %89 = sext i32 %88 to i64
  %90 = getelementptr [27 x %struct.amqp_defined_types_t], ptr @amqp_1_0_defined_types, i64 0, i64 %89
  %91 = getelementptr inbounds nuw %struct.amqp_defined_types_t, ptr %90, i32 0, i32 0
  %92 = load i32, ptr %91, align 16
  %93 = load i32, ptr %16, align 4
  %94 = icmp eq i32 %92, %93
  br i1 %94, label %95, label %115

95:                                               ; preds = %87
  %96 = load i32, ptr %15, align 4
  %97 = sext i32 %96 to i64
  %98 = getelementptr [27 x %struct.amqp_defined_types_t], ptr @amqp_1_0_defined_types, i64 0, i64 %97
  %99 = getelementptr inbounds nuw %struct.amqp_defined_types_t, ptr %98, i32 0, i32 1
  %100 = load ptr, ptr %99, align 8
  %101 = load i32, ptr %100, align 4
  %102 = load ptr, ptr %10, align 8
  store i32 %101, ptr %102, align 4
  %103 = load i32, ptr %15, align 4
  %104 = sext i32 %103 to i64
  %105 = getelementptr [27 x %struct.amqp_defined_types_t], ptr @amqp_1_0_defined_types, i64 0, i64 %104
  %106 = getelementptr inbounds nuw %struct.amqp_defined_types_t, ptr %105, i32 0, i32 2
  %107 = load i32, ptr %106, align 16
  %108 = load ptr, ptr %12, align 8
  store i32 %107, ptr %108, align 4
  %109 = load i32, ptr %15, align 4
  %110 = sext i32 %109 to i64
  %111 = getelementptr [27 x %struct.amqp_defined_types_t], ptr @amqp_1_0_defined_types, i64 0, i64 %110
  %112 = getelementptr inbounds nuw %struct.amqp_defined_types_t, ptr %111, i32 0, i32 3
  %113 = load ptr, ptr %112, align 8
  %114 = load ptr, ptr %13, align 8
  store ptr %113, ptr %114, align 8
  br label %119

115:                                              ; preds = %87
  br label %116

116:                                              ; preds = %115
  %117 = load i32, ptr %15, align 4
  %118 = add i32 %117, 1
  store i32 %118, ptr %15, align 4
  br label %80, !llvm.loop !23

119:                                              ; preds = %95, %80
  %120 = load ptr, ptr %8, align 8
  %121 = load i32, ptr %9, align 4
  %122 = call zeroext i8 @tvb_get_uint8(ptr noundef %120, i32 noundef %121)
  %123 = zext i8 %122 to i32
  store i32 %123, ptr %16, align 4
  %124 = load i32, ptr %9, align 4
  %125 = add i32 %124, 1
  store i32 %125, ptr %9, align 4
  br label %126

126:                                              ; preds = %119, %7
  %127 = load i32, ptr %9, align 4
  %128 = load i32, ptr %19, align 4
  %129 = sub i32 %127, %128
  %130 = load ptr, ptr %14, align 8
  store i32 %129, ptr %130, align 4
  %131 = load i32, ptr %16, align 4
  call void @llvm.lifetime.end.p0(i64 4, ptr %19) #11
  call void @llvm.lifetime.end.p0(i64 4, ptr %18) #11
  call void @llvm.lifetime.end.p0(i64 4, ptr %17) #11
  call void @llvm.lifetime.end.p0(i64 4, ptr %16) #11
  call void @llvm.lifetime.end.p0(i64 4, ptr %15) #11
  ret i32 %131
}