; Function Attrs: null_pointer_is_valid sspstrong uwtable
define internal fastcc range(i32 0, 256) i32 @get_amqp_1_0_type_formatter(ptr noundef %0, i32 noundef %1, ptr noundef writeonly captures(none) %2, ptr noundef writeonly captures(none) %3, ptr noundef writeonly captures(none) %4, ptr noundef writeonly captures(none) %5, ptr noundef writeonly captures(none) %6) unnamed_addr #0 {
  %8 = tail call zeroext i8 @tvb_get_uint8(ptr noundef %0, i32 noundef %1)
  %9 = add i32 %1, 1
  %10 = icmp eq i8 %8, 0
  br i1 %10, label %11, label %58

11:                                               ; preds = %7
  %12 = tail call zeroext i8 @tvb_get_uint8(ptr noundef %0, i32 noundef %9)
  %13 = zext i8 %12 to i32
  %14 = and i32 %13, 15
  %15 = icmp eq i32 %14, 15
  %spec.select.v = select i1 %15, i32 3, i32 2
  %spec.select = add i32 %spec.select.v, %1
  %16 = lshr i32 %13, 4
  switch i32 %16, label %42 [
    i32 11, label %36
    i32 5, label %17
    i32 6, label %20
    i32 7, label %23
    i32 8, label %25
    i32 9, label %28
    i32 10, label %29
  ]

17:                                               ; preds = %11
  %18 = tail call zeroext i8 @tvb_get_uint8(ptr noundef %0, i32 noundef %spec.select)
  %19 = zext i8 %18 to i32
  br label %42

20:                                               ; preds = %11
  %21 = tail call zeroext i16 @tvb_get_ntohs(ptr noundef %0, i32 noundef %spec.select)
  %22 = zext i16 %21 to i32
  br label %42

23:                                               ; preds = %11
  %24 = tail call i32 @tvb_get_ntohl(ptr noundef %0, i32 noundef %spec.select)
  br label %42

25:                                               ; preds = %11
  %26 = tail call i64 @tvb_get_ntoh64(ptr noundef %0, i32 noundef %spec.select)
  %27 = trunc i64 %26 to i32
  br label %42

28:                                               ; preds = %11
  br label %42

29:                                               ; preds = %11
  %30 = tail call zeroext i8 @tvb_get_uint8(ptr noundef %0, i32 noundef %spec.select)
  %31 = zext i8 %30 to i32
  %32 = add i32 %spec.select, 1
  %33 = tail call ptr @wmem_packet_scope()
  %34 = tail call ptr @tvb_get_string_enc(ptr noundef %33, ptr noundef %0, i32 noundef %32, i32 noundef %31, i32 noundef 2)
  store ptr %34, ptr %3, align 8
  %35 = add nuw nsw i32 %31, 1
  br label %42

36:                                               ; preds = %11
  %37 = tail call i32 @tvb_get_ntohl(ptr noundef %0, i32 noundef %spec.select)
  %38 = add i32 %spec.select, 4
  %39 = tail call ptr @wmem_packet_scope()
  %40 = tail call ptr @tvb_get_string_enc(ptr noundef %39, ptr noundef %0, i32 noundef %38, i32 noundef %37, i32 noundef 2)
  store ptr %40, ptr %3, align 8
  %41 = add i32 %37, 4
  br label %42

42:                                               ; preds = %36, %29, %28, %25, %23, %20, %17, %11
  %.146 = phi i32 [ 0, %36 ], [ 0, %29 ], [ 0, %28 ], [ %27, %25 ], [ %24, %23 ], [ %22, %20 ], [ %19, %17 ], [ 0, %11 ]
  %.043 = phi i32 [ %41, %36 ], [ %35, %29 ], [ 16, %28 ], [ 8, %25 ], [ 4, %23 ], [ 2, %20 ], [ 1, %17 ], [ 0, %11 ]
  %43 = add i32 %.043, %spec.select
  %44 = icmp eq i32 %.146, 29
  br i1 %44, label %._crit_edge, label %.lr.ph

.lr.ph:                                           ; preds = %42, %45
  %indvars.iv56 = phi i64 [ %indvars.iv.next, %45 ], [ 0, %42 ]
  %indvars.iv.next = add nuw nsw i64 %indvars.iv56, 1
  %exitcond = icmp eq i64 %indvars.iv.next, 26
  br i1 %exitcond, label %.loopexit, label %45, !llvm.loop !21

45:                                               ; preds = %.lr.ph
  %46 = getelementptr [27 x %struct.amqp_defined_types_t], ptr @amqp_1_0_defined_types, i64 0, i64 %indvars.iv.next
  %47 = load i32, ptr %46, align 16
  %48 = icmp eq i32 %47, %.146
  br i1 %48, label %._crit_edge, label %.lr.ph, !llvm.loop !21

._crit_edge:                                      ; preds = %45, %42
  %.lcssa = phi ptr [ @amqp_1_0_defined_types, %42 ], [ %46, %45 ]
  %49 = getelementptr inbounds nuw i8, ptr %.lcssa, i64 8
  %50 = load ptr, ptr %49, align 8
  %51 = load i32, ptr %50, align 4
  store i32 %51, ptr %2, align 4
  %52 = getelementptr inbounds nuw i8, ptr %.lcssa, i64 16
  %53 = load i32, ptr %52, align 16
  store i32 %53, ptr %4, align 4
  %54 = getelementptr inbounds nuw i8, ptr %.lcssa, i64 24
  %55 = load ptr, ptr %54, align 8
  store ptr %55, ptr %5, align 8
  br label %.loopexit

.loopexit:                                        ; preds = %.lr.ph, %._crit_edge
  %56 = tail call zeroext i8 @tvb_get_uint8(ptr noundef %0, i32 noundef %43)
  %57 = add i32 %43, 1
  br label %58

58:                                               ; preds = %.loopexit, %7
  %.045.in = phi i8 [ %56, %.loopexit ], [ %8, %7 ]
  %.0 = phi i32 [ %57, %.loopexit ], [ %9, %7 ]
  %.045 = zext i8 %.045.in to i32
  %59 = sub i32 %.0, %1
  store i32 %59, ptr %6, align 4
  ret i32 %.045
}